ARM GAS  C:\Users\funti\AppData\Local\Temp\ccQtuinI.s 			page 1


   1              		.syntax unified
   2              		.cpu cortex-m3
   3              		.fpu softvfp
   4              		.eabi_attribute 20, 1
   5              		.eabi_attribute 21, 1
   6              		.eabi_attribute 23, 3
   7              		.eabi_attribute 24, 1
   8              		.eabi_attribute 25, 1
   9              		.eabi_attribute 26, 1
  10              		.eabi_attribute 30, 1
  11              		.eabi_attribute 34, 1
  12              		.eabi_attribute 18, 4
  13              		.thumb
  14              		.syntax unified
  15              		.file	"main.c"
  16              		.text
  17              	.Ltext0:
  18              		.cfi_sections	.debug_frame
  19              		.section	.text.StartUp,"ax",%progbits
  20              		.align	2
  21              		.global	StartUp
  22              		.thumb
  23              		.thumb_func
  24              		.type	StartUp, %function
  25              	StartUp:
  26              	.LFB64:
  27              		.file 1 "main.c"
   1:main.c        **** /* ========================================
   2:main.c        ****  *
   3:main.c        ****  * Copyright YOUR COMPANY, THE YEAR
   4:main.c        ****  * All Rights Reserved
   5:main.c        ****  * UNPUBLISHED, LICENSED SOFTWARE.
   6:main.c        ****  *
   7:main.c        ****  * CONFIDENTIAL AND PROPRIETARY INFORMATION
   8:main.c        ****  * WHICH IS THE PROPERTY OF your company.
   9:main.c        ****  *
  10:main.c        ****  * ========================================
  11:main.c        **** */
  12:main.c        **** #include <project.h>
  13:main.c        **** void StartUp (void);
  14:main.c        **** void ReadButtons (void);
  15:main.c        **** void setBit(uint8, uint8);
  16:main.c        **** static int8 Joystick_Data[2] = {0, 0};
  17:main.c        **** static unsigned char Buttons1;
  18:main.c        **** static unsigned char Buttons2;
  19:main.c        **** static unsigned char Buttons3;
  20:main.c        **** 
  21:main.c        **** 
  22:main.c        **** int main(void)
  23:main.c        **** {
  24:main.c        ****     CyGlobalIntEnable; /* Enable global interrupts. */
  25:main.c        **** 
  26:main.c        ****     /* Place your initialization/startup code here (e.g. MyInst_Start()) */
  27:main.c        **** 
  28:main.c        ****     StartUp();
  29:main.c        ****  for(;;)
  30:main.c        ****  {
ARM GAS  C:\Users\funti\AppData\Local\Temp\ccQtuinI.s 			page 2


  31:main.c        ****  /* Waits for ACK from the host */
  32:main.c        ****  while(!USBFS_1_bGetEPAckState(1));
  33:main.c        ****  ReadButtons();
  34:main.c        ****  /* Delay added to periodically send data */
  35:main.c        ****  CyDelay(10);
  36:main.c        ****  Joystick_Data[0] = Buttons1;
  37:main.c        ****  Joystick_Data[1] = Buttons2;
  38:main.c        ****  /* Loads EP1 for a IN transfer to PC */
  39:main.c        ****  USBFS_1_LoadInEP(1, (uint8 *)Joystick_Data, 2);
  40:main.c        ****  }
  41:main.c        **** }
  42:main.c        **** void StartUp (void)
  43:main.c        **** {
  28              		.loc 1 43 0
  29              		.cfi_startproc
  30              		@ args = 0, pretend = 0, frame = 0
  31              		@ frame_needed = 0, uses_anonymous_args = 0
  32 0000 08B5     		push	{r3, lr}
  33              		.cfi_def_cfa_offset 8
  34              		.cfi_offset 3, -8
  35              		.cfi_offset 14, -4
  44:main.c        ****  CYGlobalIntEnable;
  36              		.loc 1 44 0
  37              		.syntax unified
  38              	@ 44 "main.c" 1
  39 0002 62B6     		CPSIE   i
  40              	@ 0 "" 2
  45:main.c        ****  /* Activates and configs the USB component */
  46:main.c        ****  USBFS_1_Start(0, USBFS_1_5V_OPERATION);
  41              		.loc 1 46 0
  42              		.thumb
  43              		.syntax unified
  44 0004 0121     		movs	r1, #1
  45 0006 0020     		movs	r0, #0
  46 0008 FFF7FEFF 		bl	USBFS_1_Start
  47              	.LVL0:
  48              	.L2:
  47:main.c        ****  /* Waits for configuration data from host */
  48:main.c        ****  while(!USBFS_1_bGetConfiguration());
  49              		.loc 1 48 0 discriminator 1
  50 000c FFF7FEFF 		bl	USBFS_1_GetConfiguration
  51              	.LVL1:
  52 0010 0028     		cmp	r0, #0
  53 0012 FBD0     		beq	.L2
  49:main.c        ****  /* Begins initial communication with PC */
  50:main.c        ****  USBFS_1_LoadInEP(1, (uint8 *)Joystick_Data, 2);
  54              		.loc 1 50 0
  55 0014 0222     		movs	r2, #2
  56 0016 0249     		ldr	r1, .L4
  57 0018 0120     		movs	r0, #1
  58 001a FFF7FEFF 		bl	USBFS_1_LoadInEP
  59              	.LVL2:
  60 001e 08BD     		pop	{r3, pc}
  61              	.L5:
  62              		.align	2
  63              	.L4:
  64 0020 00000000 		.word	.LANCHOR0
ARM GAS  C:\Users\funti\AppData\Local\Temp\ccQtuinI.s 			page 3


  65              		.cfi_endproc
  66              	.LFE64:
  67              		.size	StartUp, .-StartUp
  68              		.section	.text.setBit,"ax",%progbits
  69              		.align	2
  70              		.global	setBit
  71              		.thumb
  72              		.thumb_func
  73              		.type	setBit, %function
  74              	setBit:
  75              	.LFB66:
  51:main.c        **** }
  52:main.c        **** void ReadButtons (void)
  53:main.c        **** {
  54:main.c        ****     /* Active low — switch/button closes pin to GND; pull-up reads 0 when pressed, inverted to 1 
  55:main.c        ****     setBit(0, !SW_A_Read());
  56:main.c        ****     setBit(1, !SW_B_Read());
  57:main.c        ****     setBit(2, !SW_C_Read());
  58:main.c        ****     setBit(3, !SW_D_Read());
  59:main.c        ****     setBit(4, !BTN_1_Read());
  60:main.c        ****     setBit(5, !BTN_2_Read());
  61:main.c        ****     setBit(6, !BTN_3_Read());
  62:main.c        ****     setBit(7, !BTN_4_Read());
  63:main.c        ****     setBit(8, !BTN_5_Read());
  64:main.c        ****     setBit(9, !BTN_6_Read());
  65:main.c        **** }
  66:main.c        **** 
  67:main.c        **** void setBit(uint8 bitNum, uint8 pinRead) {
  76              		.loc 1 67 0
  77              		.cfi_startproc
  78              		@ args = 0, pretend = 0, frame = 0
  79              		@ frame_needed = 0, uses_anonymous_args = 0
  80              		@ link register save eliminated.
  81              	.LVL3:
  68:main.c        ****     if (bitNum < 8) {
  82              		.loc 1 68 0
  83 0000 0728     		cmp	r0, #7
  84 0002 11D8     		bhi	.L7
  69:main.c        ****         
  70:main.c        ****         if (pinRead != 0) {
  85              		.loc 1 70 0
  86 0004 39B1     		cbz	r1, .L8
  71:main.c        ****             Buttons1 |= (0x01 << bitNum);
  87              		.loc 1 71 0
  88 0006 0123     		movs	r3, #1
  89 0008 03FA00F0 		lsl	r0, r3, r0
  90              	.LVL4:
  91 000c 1B4B     		ldr	r3, .L13
  92 000e 9A78     		ldrb	r2, [r3, #2]	@ zero_extendqisi2
  93 0010 1043     		orrs	r0, r0, r2
  94 0012 9870     		strb	r0, [r3, #2]
  95 0014 7047     		bx	lr
  96              	.LVL5:
  97              	.L8:
  72:main.c        ****         }
  73:main.c        ****         else {
  74:main.c        ****             Buttons1 &= ~(0x01 << bitNum);
ARM GAS  C:\Users\funti\AppData\Local\Temp\ccQtuinI.s 			page 4


  98              		.loc 1 74 0
  99 0016 0123     		movs	r3, #1
 100 0018 03FA00F0 		lsl	r0, r3, r0
 101              	.LVL6:
 102 001c 174A     		ldr	r2, .L13
 103 001e 9378     		ldrb	r3, [r2, #2]	@ zero_extendqisi2
 104 0020 23EA0000 		bic	r0, r3, r0
 105 0024 9070     		strb	r0, [r2, #2]
 106 0026 7047     		bx	lr
 107              	.LVL7:
 108              	.L7:
  75:main.c        ****         }
  76:main.c        ****     }
  77:main.c        ****     else if (bitNum < 16) {
 109              		.loc 1 77 0
 110 0028 0F28     		cmp	r0, #15
 111 002a 13D8     		bhi	.L10
  78:main.c        ****         bitNum -= 8;
 112              		.loc 1 78 0
 113 002c 0838     		subs	r0, r0, #8
 114              	.LVL8:
 115 002e C0B2     		uxtb	r0, r0
 116              	.LVL9:
  79:main.c        ****         if (pinRead != 0) {
 117              		.loc 1 79 0
 118 0030 39B1     		cbz	r1, .L11
  80:main.c        ****             Buttons2 |= (0x01 << bitNum);
 119              		.loc 1 80 0
 120 0032 0123     		movs	r3, #1
 121 0034 03FA00F0 		lsl	r0, r3, r0
 122              	.LVL10:
 123 0038 104B     		ldr	r3, .L13
 124 003a DA78     		ldrb	r2, [r3, #3]	@ zero_extendqisi2
 125 003c 1043     		orrs	r0, r0, r2
 126 003e D870     		strb	r0, [r3, #3]
 127 0040 7047     		bx	lr
 128              	.LVL11:
 129              	.L11:
  81:main.c        ****         }
  82:main.c        ****         else {
  83:main.c        ****             Buttons2 &= ~(0x01 << bitNum);
 130              		.loc 1 83 0
 131 0042 0123     		movs	r3, #1
 132 0044 03FA00F0 		lsl	r0, r3, r0
 133              	.LVL12:
 134 0048 0C4A     		ldr	r2, .L13
 135 004a D378     		ldrb	r3, [r2, #3]	@ zero_extendqisi2
 136 004c 23EA0000 		bic	r0, r3, r0
 137 0050 D070     		strb	r0, [r2, #3]
 138 0052 7047     		bx	lr
 139              	.LVL13:
 140              	.L10:
  84:main.c        ****         }
  85:main.c        ****     }
  86:main.c        ****     else {
  87:main.c        ****         bitNum -= 16;
 141              		.loc 1 87 0
ARM GAS  C:\Users\funti\AppData\Local\Temp\ccQtuinI.s 			page 5


 142 0054 1038     		subs	r0, r0, #16
 143              	.LVL14:
 144 0056 C0B2     		uxtb	r0, r0
 145              	.LVL15:
  88:main.c        ****         if (pinRead != 0) {
 146              		.loc 1 88 0
 147 0058 39B1     		cbz	r1, .L12
  89:main.c        ****             Buttons3 |= (0x01 << bitNum);
 148              		.loc 1 89 0
 149 005a 0123     		movs	r3, #1
 150 005c 03FA00F0 		lsl	r0, r3, r0
 151              	.LVL16:
 152 0060 064B     		ldr	r3, .L13
 153 0062 1A79     		ldrb	r2, [r3, #4]	@ zero_extendqisi2
 154 0064 1043     		orrs	r0, r0, r2
 155 0066 1871     		strb	r0, [r3, #4]
 156 0068 7047     		bx	lr
 157              	.LVL17:
 158              	.L12:
  90:main.c        ****         }
  91:main.c        ****         else {
  92:main.c        ****             Buttons3 &= ~(0x01 << bitNum);
 159              		.loc 1 92 0
 160 006a 0123     		movs	r3, #1
 161 006c 03FA00F0 		lsl	r0, r3, r0
 162              	.LVL18:
 163 0070 024A     		ldr	r2, .L13
 164 0072 1379     		ldrb	r3, [r2, #4]	@ zero_extendqisi2
 165 0074 23EA0000 		bic	r0, r3, r0
 166 0078 1071     		strb	r0, [r2, #4]
 167 007a 7047     		bx	lr
 168              	.L14:
 169              		.align	2
 170              	.L13:
 171 007c 00000000 		.word	.LANCHOR0
 172              		.cfi_endproc
 173              	.LFE66:
 174              		.size	setBit, .-setBit
 175              		.section	.text.ReadButtons,"ax",%progbits
 176              		.align	2
 177              		.global	ReadButtons
 178              		.thumb
 179              		.thumb_func
 180              		.type	ReadButtons, %function
 181              	ReadButtons:
 182              	.LFB65:
  53:main.c        ****     /* Active low — switch/button closes pin to GND; pull-up reads 0 when pressed, inverted to 1 
 183              		.loc 1 53 0
 184              		.cfi_startproc
 185              		@ args = 0, pretend = 0, frame = 0
 186              		@ frame_needed = 0, uses_anonymous_args = 0
 187 0000 08B5     		push	{r3, lr}
 188              		.cfi_def_cfa_offset 8
 189              		.cfi_offset 3, -8
 190              		.cfi_offset 14, -4
  55:main.c        ****     setBit(1, !SW_B_Read());
 191              		.loc 1 55 0
ARM GAS  C:\Users\funti\AppData\Local\Temp\ccQtuinI.s 			page 6


 192 0002 FFF7FEFF 		bl	SW_A_Read
 193              	.LVL19:
 194 0006 B0FA80F1 		clz	r1, r0
 195 000a 4909     		lsrs	r1, r1, #5
 196 000c 0020     		movs	r0, #0
 197 000e FFF7FEFF 		bl	setBit
 198              	.LVL20:
  56:main.c        ****     setBit(2, !SW_C_Read());
 199              		.loc 1 56 0
 200 0012 FFF7FEFF 		bl	SW_B_Read
 201              	.LVL21:
 202 0016 B0FA80F1 		clz	r1, r0
 203 001a 4909     		lsrs	r1, r1, #5
 204 001c 0120     		movs	r0, #1
 205 001e FFF7FEFF 		bl	setBit
 206              	.LVL22:
  57:main.c        ****     setBit(3, !SW_D_Read());
 207              		.loc 1 57 0
 208 0022 FFF7FEFF 		bl	SW_C_Read
 209              	.LVL23:
 210 0026 B0FA80F1 		clz	r1, r0
 211 002a 4909     		lsrs	r1, r1, #5
 212 002c 0220     		movs	r0, #2
 213 002e FFF7FEFF 		bl	setBit
 214              	.LVL24:
  58:main.c        ****     setBit(4, !BTN_1_Read());
 215              		.loc 1 58 0
 216 0032 FFF7FEFF 		bl	SW_D_Read
 217              	.LVL25:
 218 0036 B0FA80F1 		clz	r1, r0
 219 003a 4909     		lsrs	r1, r1, #5
 220 003c 0320     		movs	r0, #3
 221 003e FFF7FEFF 		bl	setBit
 222              	.LVL26:
  59:main.c        ****     setBit(5, !BTN_2_Read());
 223              		.loc 1 59 0
 224 0042 FFF7FEFF 		bl	BTN_1_Read
 225              	.LVL27:
 226 0046 B0FA80F1 		clz	r1, r0
 227 004a 4909     		lsrs	r1, r1, #5
 228 004c 0420     		movs	r0, #4
 229 004e FFF7FEFF 		bl	setBit
 230              	.LVL28:
  60:main.c        ****     setBit(6, !BTN_3_Read());
 231              		.loc 1 60 0
 232 0052 FFF7FEFF 		bl	BTN_2_Read
 233              	.LVL29:
 234 0056 B0FA80F1 		clz	r1, r0
 235 005a 4909     		lsrs	r1, r1, #5
 236 005c 0520     		movs	r0, #5
 237 005e FFF7FEFF 		bl	setBit
 238              	.LVL30:
  61:main.c        ****     setBit(7, !BTN_4_Read());
 239              		.loc 1 61 0
 240 0062 FFF7FEFF 		bl	BTN_3_Read
 241              	.LVL31:
 242 0066 B0FA80F1 		clz	r1, r0
ARM GAS  C:\Users\funti\AppData\Local\Temp\ccQtuinI.s 			page 7


 243 006a 4909     		lsrs	r1, r1, #5
 244 006c 0620     		movs	r0, #6
 245 006e FFF7FEFF 		bl	setBit
 246              	.LVL32:
  62:main.c        ****     setBit(8, !BTN_5_Read());
 247              		.loc 1 62 0
 248 0072 FFF7FEFF 		bl	BTN_4_Read
 249              	.LVL33:
 250 0076 B0FA80F1 		clz	r1, r0
 251 007a 4909     		lsrs	r1, r1, #5
 252 007c 0720     		movs	r0, #7
 253 007e FFF7FEFF 		bl	setBit
 254              	.LVL34:
  63:main.c        ****     setBit(9, !BTN_6_Read());
 255              		.loc 1 63 0
 256 0082 FFF7FEFF 		bl	BTN_5_Read
 257              	.LVL35:
 258 0086 B0FA80F1 		clz	r1, r0
 259 008a 4909     		lsrs	r1, r1, #5
 260 008c 0820     		movs	r0, #8
 261 008e FFF7FEFF 		bl	setBit
 262              	.LVL36:
  64:main.c        **** }
 263              		.loc 1 64 0
 264 0092 FFF7FEFF 		bl	BTN_6_Read
 265              	.LVL37:
 266 0096 B0FA80F1 		clz	r1, r0
 267 009a 4909     		lsrs	r1, r1, #5
 268 009c 0920     		movs	r0, #9
 269 009e FFF7FEFF 		bl	setBit
 270              	.LVL38:
 271 00a2 08BD     		pop	{r3, pc}
 272              		.cfi_endproc
 273              	.LFE65:
 274              		.size	ReadButtons, .-ReadButtons
 275              		.section	.text.main,"ax",%progbits
 276              		.align	2
 277              		.global	main
 278              		.thumb
 279              		.thumb_func
 280              		.type	main, %function
 281              	main:
 282              	.LFB63:
  23:main.c        ****     CyGlobalIntEnable; /* Enable global interrupts. */
 283              		.loc 1 23 0
 284              		.cfi_startproc
 285              		@ Volatile: function does not return.
 286              		@ args = 0, pretend = 0, frame = 0
 287              		@ frame_needed = 0, uses_anonymous_args = 0
 288 0000 08B5     		push	{r3, lr}
 289              		.cfi_def_cfa_offset 8
 290              		.cfi_offset 3, -8
 291              		.cfi_offset 14, -4
  24:main.c        **** 
 292              		.loc 1 24 0
 293              		.syntax unified
 294              	@ 24 "main.c" 1
ARM GAS  C:\Users\funti\AppData\Local\Temp\ccQtuinI.s 			page 8


 295 0002 62B6     		CPSIE   i
 296              	@ 0 "" 2
  28:main.c        ****  for(;;)
 297              		.loc 1 28 0
 298              		.thumb
 299              		.syntax unified
 300 0004 FFF7FEFF 		bl	StartUp
 301              	.LVL39:
 302              	.L18:
  32:main.c        ****  ReadButtons();
 303              		.loc 1 32 0 discriminator 1
 304 0008 0120     		movs	r0, #1
 305 000a FFF7FEFF 		bl	USBFS_1_GetEPAckState
 306              	.LVL40:
 307 000e 0028     		cmp	r0, #0
 308 0010 FAD0     		beq	.L18
  33:main.c        ****  /* Delay added to periodically send data */
 309              		.loc 1 33 0
 310 0012 FFF7FEFF 		bl	ReadButtons
 311              	.LVL41:
  35:main.c        ****  Joystick_Data[0] = Buttons1;
 312              		.loc 1 35 0
 313 0016 0A20     		movs	r0, #10
 314 0018 FFF7FEFF 		bl	CyDelay
 315              	.LVL42:
  36:main.c        ****  Joystick_Data[1] = Buttons2;
 316              		.loc 1 36 0
 317 001c 0449     		ldr	r1, .L21
 318 001e 8B78     		ldrb	r3, [r1, #2]	@ zero_extendqisi2
 319 0020 0B70     		strb	r3, [r1]
  37:main.c        ****  /* Loads EP1 for a IN transfer to PC */
 320              		.loc 1 37 0
 321 0022 CB78     		ldrb	r3, [r1, #3]	@ zero_extendqisi2
 322 0024 4B70     		strb	r3, [r1, #1]
  39:main.c        ****  }
 323              		.loc 1 39 0
 324 0026 0222     		movs	r2, #2
 325 0028 0120     		movs	r0, #1
 326 002a FFF7FEFF 		bl	USBFS_1_LoadInEP
 327              	.LVL43:
  40:main.c        **** }
 328              		.loc 1 40 0
 329 002e EBE7     		b	.L18
 330              	.L22:
 331              		.align	2
 332              	.L21:
 333 0030 00000000 		.word	.LANCHOR0
 334              		.cfi_endproc
 335              	.LFE63:
 336              		.size	main, .-main
 337              		.bss
 338              		.align	2
 339              		.set	.LANCHOR0,. + 0
 340              		.type	Joystick_Data, %object
 341              		.size	Joystick_Data, 2
 342              	Joystick_Data:
 343 0000 0000     		.space	2
ARM GAS  C:\Users\funti\AppData\Local\Temp\ccQtuinI.s 			page 9


 344              		.type	Buttons1, %object
 345              		.size	Buttons1, 1
 346              	Buttons1:
 347 0002 00       		.space	1
 348              		.type	Buttons2, %object
 349              		.size	Buttons2, 1
 350              	Buttons2:
 351 0003 00       		.space	1
 352              		.type	Buttons3, %object
 353              		.size	Buttons3, 1
 354              	Buttons3:
 355 0004 00       		.space	1
 356              		.text
 357              	.Letext0:
 358              		.file 2 "c:\\program files (x86)\\cypress\\psoc creator\\4.4\\psoc creator\\import\\gnu\\arm\\5.4.
 359              		.file 3 "c:\\program files (x86)\\cypress\\psoc creator\\4.4\\psoc creator\\import\\gnu\\arm\\5.4.
 360              		.file 4 "Generated_Source\\PSoC5/cytypes.h"
 361              		.file 5 "Generated_Source\\PSoC5/USBFS_1.h"
 362              		.file 6 "Generated_Source\\PSoC5/SW_A.h"
 363              		.file 7 "Generated_Source\\PSoC5/SW_B.h"
 364              		.file 8 "Generated_Source\\PSoC5/SW_C.h"
 365              		.file 9 "Generated_Source\\PSoC5/SW_D.h"
 366              		.file 10 "Generated_Source\\PSoC5/BTN_1.h"
 367              		.file 11 "Generated_Source\\PSoC5/BTN_2.h"
 368              		.file 12 "Generated_Source\\PSoC5/BTN_3.h"
 369              		.file 13 "Generated_Source\\PSoC5/BTN_4.h"
 370              		.file 14 "Generated_Source\\PSoC5/BTN_5.h"
 371              		.file 15 "Generated_Source\\PSoC5/BTN_6.h"
 372              		.file 16 "Generated_Source\\PSoC5/CyLib.h"
 373              		.file 17 "Generated_Source\\PSoC5/core_cm3.h"